; Function Attrs: mustprogress nofree norecurse nosync nounwind willreturn memory(argmem: write) uwtable
define void @_ZN6icu_7720RBBISymbolTableEntryC2Ev(ptr noundef nonnull writeonly align 8 captures(none) dereferenceable(80) initializes((8, 18), (72, 80)) %0) unnamed_addr #11 align 2 {
  %2 = getelementptr inbounds nuw i8, ptr %0, i64 8
  store ptr getelementptr inbounds nuw inrange(-16, 88) (i8, ptr @_ZTVN6icu_7713UnicodeStringE, i64 16), ptr %2, align 8, !tbaa !15
  %3 = getelementptr inbounds nuw i8, ptr %0, i64 16
  store i16 2, ptr %3, align 8, !tbaa !42
  %4 = getelementptr inbounds nuw i8, ptr %0, i64 72
  store ptr null, ptr %4, align 8, !tbaa !30
  ret void
}